; Function Attrs: mustprogress nofree norecurse nosync nounwind willreturn memory(argmem: read) uwtable
define hidden noundef nonnull ptr @_ZN7testing8internal12UnitTestImpl19current_test_resultEv(ptr noundef nonnull readonly align 8 dereferenceable(401) %0) local_unnamed_addr #14 align 2 {
  %2 = getelementptr inbounds nuw i8, ptr %0, i64 216
  %3 = load ptr, ptr %2, align 8
  %.not = icmp eq ptr %3, null
  %4 = getelementptr inbounds nuw i8, ptr %3, i64 104
  %5 = getelementptr inbounds nuw i8, ptr %0, i64 224
  %6 = select i1 %.not, ptr %5, ptr %4
  ret ptr %6
}